; ModuleID = '23/830.c'
source_filename = "23/830.c"
target datalayout = "e-m:e-p270:32:32-p271:32:32-p272:64:64-i64:64-f80:128-n8:16:32:64-S128"
target triple = "x86_64-pc-linux-gnu"

@.str = private unnamed_addr constant [3 x i8] c"%s\00", align 1
@.str.1 = private unnamed_addr constant [4 x i8] c" %s\00", align 1
@.str.2 = private unnamed_addr constant [2 x i8] c"\0A\00", align 1

; Function Attrs: noinline nounwind uwtable
define dso_local i32 @main() #0 {
  %1 = alloca i32, align 4
  %2 = alloca [110 x [110 x i8]], align 16
  %3 = alloca i32, align 4
  %4 = alloca i32, align 4
  store i32 0, i32* %1, align 4
  store i32 0, i32* %3, align 4
  br label %5

5:                                                ; preds = %11, %0
  %6 = load i32, i32* %3, align 4
  %7 = sext i32 %6 to i64
  %8 = getelementptr inbounds [110 x [110 x i8]], [110 x [110 x i8]]* %2, i64 0, i64 %7
  %9 = call i32 (i8*, ...) @__isoc99_scanf(i8* getelementptr inbounds ([3 x i8], [3 x i8]* @.str, i64 0, i64 0), [110 x i8]* %8)
  %10 = icmp ne i32 %9, -1
  br i1 %10, label %11, label %14

11:                                               ; preds = %5
  %12 = load i32, i32* %3, align 4
  %13 = add nsw i32 %12, 1
  store i32 %13, i32* %3, align 4
  br label %5

14:                                               ; preds = %5
  %15 = load i32, i32* %3, align 4
  %16 = sub nsw i32 %15, 1
  %17 = sext i32 %16 to i64
  %18 = getelementptr inbounds [110 x [110 x i8]], [110 x [110 x i8]]* %2, i64 0, i64 %17
  %19 = getelementptr inbounds [110 x i8], [110 x i8]* %18, i64 0, i64 0
  %20 = call i32 (i8*, ...) @printf(i8* getelementptr inbounds ([3 x i8], [3 x i8]* @.str, i64 0, i64 0), i8* %19)
  %21 = load i32, i32* %3, align 4
  %22 = sub nsw i32 %21, 2
  store i32 %22, i32* %4, align 4
  br label %23

23:                                               ; preds = %32, %14
  %24 = load i32, i32* %4, align 4
  %25 = icmp sge i32 %24, 0
  br i1 %25, label %26, label %35

26:                                               ; preds = %23
  %27 = load i32, i32* %4, align 4
  %28 = sext i32 %27 to i64
  %29 = getelementptr inbounds [110 x [110 x i8]], [110 x [110 x i8]]* %2, i64 0, i64 %28
  %30 = getelementptr inbounds [110 x i8], [110 x i8]* %29, i64 0, i64 0
  %31 = call i32 (i8*, ...) @printf(i8* getelementptr inbounds ([4 x i8], [4 x i8]* @.str.1, i64 0, i64 0), i8* %30)
  br label %32

32:                                               ; preds = %26
  %33 = load i32, i32* %4, align 4
  %34 = add nsw i32 %33, -1
  store i32 %34, i32* %4, align 4
  br label %23

35:                                               ; preds = %23
  %36 = call i32 (i8*, ...) @printf(i8* getelementptr inbounds ([2 x i8], [2 x i8]* @.str.2, i64 0, i64 0))
  %37 = call i32 @getchar()
  %38 = call i32 @getchar()
  %39 = load i32, i32* %1, align 4
  ret i32 %39
}

declare dso_local i32 @__isoc99_scanf(i8*, ...) #1

declare dso_local i32 @printf(i8*, ...) #1

declare dso_local i32 @getchar() #1


!llvm.module.flags = !{!0}
!llvm.ident = !{!1}

!0 = !{i32 1, !"wchar_size", i32 4}
!1 = !{!"clang version 10.0.0-4ubuntu1 "}
