; ModuleID = 'source-C-CXX/22/830.c'
source_filename = "source-C-CXX/22/830.c"
target datalayout = "e-m:e-p270:32:32-p271:32:32-p272:64:64-i64:64-f80:128-n8:16:32:64-S128"
target triple = "x86_64-pc-linux-gnu"

%struct._IO_FILE = type { i32, i8*, i8*, i8*, i8*, i8*, i8*, i8*, i8*, i8*, i8*, i8*, %struct._IO_marker*, %struct._IO_FILE*, i32, i32, i64, i16, i8, [1 x i8], i8*, i64, %struct._IO_codecvt*, %struct._IO_wide_data*, %struct._IO_FILE*, i8*, i64, i32, [20 x i8] }
%struct._IO_marker = type opaque
%struct._IO_codecvt = type opaque
%struct._IO_wide_data = type opaque

@.str = private unnamed_addr constant [3 x i8] c"%s\00", align 1
@.str.1 = private unnamed_addr constant [4 x i8] c" %s\00", align 1
@stdin = external local_unnamed_addr global %struct._IO_FILE*, align 8

; Function Attrs: nofree nounwind sspstrong uwtable
define dso_local i32 @main() local_unnamed_addr #0 {
  %1 = alloca [110 x [110 x i8]], align 16
  %2 = getelementptr inbounds [110 x [110 x i8]], [110 x [110 x i8]]* %1, i64 0, i64 0, i64 0
  call void @llvm.lifetime.start.p0i8(i64 12100, i8* nonnull %2) #4
  br label %3

3:                                                ; preds = %3, %0
  %4 = phi i64 [ %8, %3 ], [ 0, %0 ]
  %5 = getelementptr inbounds [110 x [110 x i8]], [110 x [110 x i8]]* %1, i64 0, i64 %4
  %6 = call i32 (i8*, ...) @__isoc99_scanf(i8* getelementptr inbounds ([3 x i8], [3 x i8]* @.str, i64 0, i64 0), [110 x i8]* nonnull %5)
  %7 = icmp eq i32 %6, -1
  %8 = add nuw i64 %4, 1
  br i1 %7, label %9, label %3, !llvm.loop !5

9:                                                ; preds = %3
  %10 = trunc i64 %4 to i32
  %11 = shl i64 %4, 32
  %12 = add i64 %11, -4294967296
  %13 = ashr exact i64 %12, 32
  %14 = getelementptr inbounds [110 x [110 x i8]], [110 x [110 x i8]]* %1, i64 0, i64 %13, i64 0
  %15 = call i32 (i8*, ...) @printf(i8* nonnull dereferenceable(1) getelementptr inbounds ([3 x i8], [3 x i8]* @.str, i64 0, i64 0), i8* nonnull %14)
  %16 = icmp ugt i32 %10, 1
  br i1 %16, label %17, label %27

17:                                               ; preds = %9
  %18 = add i64 %4, 4294967294
  %19 = and i64 %18, 4294967295
  br label %20

20:                                               ; preds = %17, %20
  %21 = phi i64 [ %19, %17 ], [ %26, %20 ]
  %22 = getelementptr inbounds [110 x [110 x i8]], [110 x [110 x i8]]* %1, i64 0, i64 %21, i64 0
  %23 = call i32 (i8*, ...) @printf(i8* nonnull dereferenceable(1) getelementptr inbounds ([4 x i8], [4 x i8]* @.str.1, i64 0, i64 0), i8* nonnull %22)
  %24 = trunc i64 %21 to i32
  %25 = icmp sgt i32 %24, 0
  %26 = add nsw i64 %21, -1
  br i1 %25, label %20, label %27, !llvm.loop !7

27:                                               ; preds = %20, %9
  %28 = call i32 @putchar(i32 10)
  %29 = load %struct._IO_FILE*, %struct._IO_FILE** @stdin, align 8, !tbaa !8
  %30 = call i32 @getc(%struct._IO_FILE* %29) #4
  %31 = load %struct._IO_FILE*, %struct._IO_FILE** @stdin, align 8, !tbaa !8
  %32 = call i32 @getc(%struct._IO_FILE* %31) #4
  call void @llvm.lifetime.end.p0i8(i64 12100, i8* nonnull %2) #4
  ret i32 0
}

; Function Attrs: argmemonly mustprogress nofree nosync nounwind willreturn
declare void @llvm.lifetime.start.p0i8(i64 immarg, i8* nocapture) #1

; Function Attrs: nofree nounwind
declare noundef i32 @__isoc99_scanf(i8* nocapture noundef readonly, ...) local_unnamed_addr #2

; Function Attrs: nofree nounwind
declare noundef i32 @printf(i8* nocapture noundef readonly, ...) local_unnamed_addr #2

; Function Attrs: argmemonly mustprogress nofree nosync nounwind willreturn
declare void @llvm.lifetime.end.p0i8(i64 immarg, i8* nocapture) #1

; Function Attrs: nofree nounwind
declare noundef i32 @getc(%struct._IO_FILE* nocapture noundef) local_unnamed_addr #2

; Function Attrs: nofree nounwind
declare noundef i32 @putchar(i32 noundef) local_unnamed_addr #3


!llvm.module.flags = !{!0, !1, !2, !3}
!llvm.ident = !{!4}

!0 = !{i32 1, !"wchar_size", i32 4}
!1 = !{i32 7, !"PIC Level", i32 2}
!2 = !{i32 7, !"PIE Level", i32 2}
!3 = !{i32 7, !"uwtable", i32 1}
!4 = !{!"clang version 13.0.0"}
!5 = distinct !{!5, !6}
!6 = !{!"llvm.loop.mustprogress"}
!7 = distinct !{!7, !6}
!8 = !{!9, !9, i64 0}
!9 = !{!"any pointer", !10, i64 0}
!10 = !{!"omnipotent char", !11, i64 0}
!11 = !{!"Simple C/C++ TBAA"}
